; ModuleID = 'source-C-CXX/6/34.c'
source_filename = "source-C-CXX/6/34.c"
target datalayout = "e-m:e-p270:32:32-p271:32:32-p272:64:64-i64:64-f80:128-n8:16:32:64-S128"
target triple = "x86_64-pc-linux-gnu"

@.str = private unnamed_addr constant [7 x i8] c"%s%s%s\00", align 1
@.str.1 = private unnamed_addr constant [3 x i8] c"%s\00", align 1

; Function Attrs: nofree nounwind sspstrong uwtable
define dso_local i32 @main() local_unnamed_addr #0 {
  %1 = alloca [256 x i8], align 16
  %2 = alloca [256 x i8], align 16
  %3 = alloca [256 x i8], align 16
  %4 = getelementptr inbounds [256 x i8], [256 x i8]* %3, i64 0, i64 0
  %5 = getelementptr inbounds [256 x i8], [256 x i8]* %1, i64 0, i64 0
  call void @llvm.lifetime.start.p0i8(i64 256, i8* nonnull %5) #5
  %6 = getelementptr inbounds [256 x i8], [256 x i8]* %2, i64 0, i64 0
  call void @llvm.lifetime.start.p0i8(i64 256, i8* nonnull %6) #5
  %7 = getelementptr inbounds [256 x i8], [256 x i8]* %3, i64 0, i64 0
  call void @llvm.lifetime.start.p0i8(i64 256, i8* nonnull %7) #5
  %8 = call i32 (i8*, ...) @__isoc99_scanf(i8* getelementptr inbounds ([7 x i8], [7 x i8]* @.str, i64 0, i64 0), i8* nonnull %6, i8* nonnull %5, i8* nonnull %7)
  %9 = call i64 @strlen(i8* noundef nonnull %5) #6
  %10 = trunc i64 %9 to i32
  %11 = call i64 @strlen(i8* noundef nonnull %6) #6
  %12 = trunc i64 %11 to i32
  %13 = icmp sgt i32 %10, 0
  %14 = icmp sgt i32 %12, 0
  %15 = select i1 %13, i1 %14, i1 false
  br i1 %15, label %16, label %39

16:                                               ; preds = %0, %16
  %17 = phi i32 [ %33, %16 ], [ undef, %0 ]
  %18 = phi i32 [ %32, %16 ], [ 0, %0 ]
  %19 = phi i32 [ %31, %16 ], [ 0, %0 ]
  %20 = sext i32 %19 to i64
  %21 = getelementptr inbounds [256 x i8], [256 x i8]* %1, i64 0, i64 %20
  %22 = load i8, i8* %21, align 1, !tbaa !5
  %23 = sext i32 %18 to i64
  %24 = getelementptr inbounds [256 x i8], [256 x i8]* %2, i64 0, i64 %23
  %25 = load i8, i8* %24, align 1, !tbaa !5
  %26 = icmp eq i8 %22, %25
  %27 = add nsw i32 %19, 1
  %28 = add nsw i32 %18, 1
  %29 = sub nsw i32 %18, %19
  %30 = add nsw i32 %29, 1
  %31 = select i1 %26, i32 %27, i32 0
  %32 = select i1 %26, i32 %28, i32 %30
  %33 = select i1 %26, i32 %17, i32 %30
  %34 = icmp slt i32 %31, %10
  %35 = icmp slt i32 %32, %12
  %36 = select i1 %34, i1 %35, i1 false
  br i1 %36, label %16, label %37, !llvm.loop !8

37:                                               ; preds = %16
  %38 = sext i32 %33 to i64
  br label %39

39:                                               ; preds = %37, %0
  %40 = phi i32 [ 0, %0 ], [ %31, %37 ]
  %41 = phi i64 [ 0, %0 ], [ %38, %37 ]
  %42 = icmp eq i32 %40, %10
  %43 = and i1 %42, %13
  br i1 %43, label %44, label %47

44:                                               ; preds = %39
  %45 = getelementptr [256 x i8], [256 x i8]* %2, i64 0, i64 %41
  %46 = and i64 %9, 4294967295
  call void @llvm.memcpy.p0i8.p0i8.i64(i8* align 1 %45, i8* nonnull align 16 %4, i64 %46, i1 false)
  br label %47

47:                                               ; preds = %44, %39
  %48 = call i32 (i8*, ...) @printf(i8* nonnull dereferenceable(1) getelementptr inbounds ([3 x i8], [3 x i8]* @.str.1, i64 0, i64 0), i8* nonnull %6)
  call void @llvm.lifetime.end.p0i8(i64 256, i8* nonnull %7) #5
  call void @llvm.lifetime.end.p0i8(i64 256, i8* nonnull %6) #5
  call void @llvm.lifetime.end.p0i8(i64 256, i8* nonnull %5) #5
  ret i32 0
}

; Function Attrs: argmemonly mustprogress nofree nosync nounwind willreturn
declare void @llvm.lifetime.start.p0i8(i64 immarg, i8* nocapture) #1

; Function Attrs: nofree nounwind
declare noundef i32 @__isoc99_scanf(i8* nocapture noundef readonly, ...) local_unnamed_addr #2

; Function Attrs: argmemonly mustprogress nofree nounwind readonly willreturn
declare i64 @strlen(i8* nocapture) local_unnamed_addr #3

; Function Attrs: nofree nounwind
declare noundef i32 @printf(i8* nocapture noundef readonly, ...) local_unnamed_addr #2

; Function Attrs: argmemonly mustprogress nofree nosync nounwind willreturn
declare void @llvm.lifetime.end.p0i8(i64 immarg, i8* nocapture) #1

; Function Attrs: argmemonly nofree nounwind willreturn
declare void @llvm.memcpy.p0i8.p0i8.i64(i8* noalias nocapture writeonly, i8* noalias nocapture readonly, i64, i1 immarg) #4


!llvm.module.flags = !{!0, !1, !2, !3}
!llvm.ident = !{!4}

!0 = !{i32 1, !"wchar_size", i32 4}
!1 = !{i32 7, !"PIC Level", i32 2}
!2 = !{i32 7, !"PIE Level", i32 2}
!3 = !{i32 7, !"uwtable", i32 1}
!4 = !{!"clang version 13.0.0"}
!5 = !{!6, !6, i64 0}
!6 = !{!"omnipotent char", !7, i64 0}
!7 = !{!"Simple C/C++ TBAA"}
!8 = distinct !{!8, !9}
!9 = !{!"llvm.loop.mustprogress"}
